; Function Attrs: mustprogress uwtable
define void @_ZNK6icu_7513StringMatcher13addMatchSetToERNS_10UnicodeSetE(ptr noundef nonnull align 8 dereferenceable(108) %this, ptr noundef nonnull align 8 dereferenceable(200) %toUnionTo) unnamed_addr #1 align 2 {
entry:
  %fUnion.i.i = getelementptr inbounds i8, ptr %this, i64 32
  %fLength.i = getelementptr inbounds i8, ptr %this, i64 36
  %0 = load i16, ptr %fUnion.i.i, align 8
  %cmp.i.i7 = icmp slt i16 %0, 0
  %1 = ashr i16 %0, 5
  %shr.i.i8 = sext i16 %1 to i32
  %2 = load i32, ptr %fLength.i, align 4
  %cond.i9 = select i1 %cmp.i.i7, i32 %2, i32 %shr.i.i8
  %cmp10 = icmp sgt i32 %cond.i9, 0
  br i1 %cmp10, label %for.body.lr.ph, label %for.end

for.body.lr.ph:                                   ; preds = %entry
  %pattern = getelementptr inbounds i8, ptr %this, i64 24
  %data = getelementptr inbounds i8, ptr %this, i64 88
  br label %for.body

for.body:                                         ; preds = %for.body.lr.ph, %for.inc
  %i.011 = phi i32 [ 0, %for.body.lr.ph ], [ %add, %for.inc ]
  %call3 = tail call noundef i32 @_ZNK6icu_7513UnicodeString8char32AtEi(ptr noundef nonnull align 8 dereferenceable(64) %pattern, i32 noundef %i.011)
  %3 = load ptr, ptr %data, align 8
  %call4 = tail call noundef ptr @_ZNK6icu_7523TransliterationRuleData13lookupMatcherEi(ptr noundef nonnull align 8 dereferenceable(1168) %3, i32 noundef %call3)
  %cmp5 = icmp eq ptr %call4, null
  br i1 %cmp5, label %if.then, label %if.else

if.then:                                          ; preds = %for.body
  %call6 = tail call noundef nonnull align 8 dereferenceable(200) ptr @_ZN6icu_7510UnicodeSet3addEi(ptr noundef nonnull align 8 dereferenceable(200) %toUnionTo, i32 noundef %call3)
  br label %for.inc

if.else:                                          ; preds = %for.body
  %vtable = load ptr, ptr %call4, align 8
  %vfn = getelementptr inbounds i8, ptr %vtable, i64 40
  %4 = load ptr, ptr %vfn, align 8
  tail call void %4(ptr noundef nonnull align 8 dereferenceable(8) %call4, ptr noundef nonnull align 8 dereferenceable(200) %toUnionTo)
  br label %for.inc

for.inc:                                          ; preds = %if.then, %if.else
  %cmp7 = icmp ult i32 %call3, 65536
  %cond = select i1 %cmp7, i32 1, i32 2
  %add = add nuw nsw i32 %cond, %i.011
  %5 = load i16, ptr %fUnion.i.i, align 8
  %cmp.i.i = icmp slt i16 %5, 0
  %6 = ashr i16 %5, 5
  %shr.i.i = sext i16 %6 to i32
  %7 = load i32, ptr %fLength.i, align 4
  %cond.i = select i1 %cmp.i.i, i32 %7, i32 %shr.i.i
  %cmp = icmp slt i32 %add, %cond.i
  br i1 %cmp, label %for.body, label %for.end, !llvm.loop !8

for.end:                                          ; preds = %for.inc, %entry
  ret void
}